Certificate:
    Data:
        Version: 1 (0x0)
        Serial Number: 0 (0x0)
        Signature Algorithm: ccitt
        Issuer: CN=Certification Authority, O=DemoCA, C=IT
        Validity
            Not Before: May 13 17:05:36 2004 GMT
            Not After : Sep 28 17:05:36 2031 GMT
        Subject: CN=Certification Authority, O=DemoCA, C=IT
        Subject Public Key Info:
            Public Key Algorithm: rsaEncryption
            RSA Public Key: (4096 bit)
                Modulus (4096 bit):
                    00:ae:ef:cc:a9:e2:42:4f:dd:76:b2:b0:af:bf:da:
                    cb:3f:dc:7b:98:e1:da:29:72:5b:28:41:ce:c0:7b:
                    1e:41:3a:5d:cd:4e:93:e6:fa:eb:a1:5e:73:00:32:
                    de:90:da:b0:1f:3f:38:2e:bb:a8:07:a6:51:e9:ce:
                    e1:4f:53:ea:5d:a8:65:2e:93:a3:10:be:0d:14:71:
                    4c:ba:6a:4b:54:bd:e9:d2:4e:0f:c4:23:42:82:8a:
                    8d:d7:e7:6b:f0:a1:07:7b:b6:4d:7c:bc:12:64:20:
                    c0:47:5f:ba:f7:58:d3:a1:5a:ac:e8:a1:6c:91:8e:
                    9d:c6:09:65:03:aa:b3:1b:20:64:86:71:13:a7:aa:
                    45:30:ff:e7:ea:e7:1d:9d:3e:08:26:7a:e7:19:ff:
                    b7:da:5c:be:18:8c:95:f0:4e:31:51:44:60:66:72:
                    ce:83:99:5c:26:13:ae:5f:25:c1:b4:74:e1:3e:8e:
                    03:77:b8:b9:57:3c:d8:88:08:7a:6e:e1:2d:0d:b9:
                    52:18:ce:93:92:ae:25:c7:f8:62:00:12:09:4f:f9:
                    5b:0d:e1:a3:35:9d:ea:26:a0:35:6d:9f:0d:a5:2f:
                    c9:07:d7:ba:1b:8f:ae:e1:29:96:d8:7f:75:b1:e6:
                    ae:35:6b:8d:b5:1c:02:39:4b:80:38:bd:d6:8e:a2:
                    b0:7b:36:0e:00:ed:c0:d9:73:4a:73:ee:ec:85:58:
                    d9:d9:a8:76:80:d5:c6:ea:52:8a:11:d4:34:6d:ea:
                    7e:e9:fa:d8:0e:2b:bf:cc:12:24:a8:00:7c:37:8e:
                    5e:af:02:32:4c:f0:05:d3:9f:30:ed:33:ad:aa:39:
                    1c:cc:dd:38:91:37:dd:9b:10:1c:38:aa:8a:44:89:
                    04:52:ae:bc:92:58:b5:c8:25:a0:46:44:60:c2:a1:
                    a4:be:59:28:14:eb:9f:91:7c:1e:31:02:cb:b3:4d:
                    37:e4:12:8f:ea:9e:53:43:35:bc:95:d9:45:99:74:
                    b2:2c:b1:ea:64:15:5e:8f:80:e5:33:82:b3:fc:1c:
                    3c:d5:8a:3e:44:b7:ba:72:8f:e3:31:e8:e7:5e:27:
                    77:02:73:69:e3:80:3d:b5:4b:51:99:7e:79:bc:66:
                    cc:63:71:6f:a1:f4:46:7b:07:38:38:96:93:3b:85:
                    57:1a:c4:a1:4d:8d:b5:3a:89:42:94:ec:80:e5:68:
                    df:7c:a7:c9:10:93:f6:e8:c5:9d:49:87:04:cd:35:
                    f2:03:6e:67:b5:23:c8:5d:fe:31:8f:0d:26:77:9d:
                    4a:5e:94:97:ca:b7:25:3e:90:62:21:4f:df:4e:b7:
                    cc:88:e4:cf:cb:b0:f2:51:2e:cb:79:b9:33:62:35:
                    41:20:f7
                Exponent: 65537 (0x10001)
    Signature Algorithm: ccitt
-----BEGIN CERTIFICATE-----
MIIGUzCCBDugAwIBAgIBADANBgkqhkiG9w0BAQQFADBAMSAwHgYDVQQDExdDZXJ0
aWZpY2F0aW9uIEF1dGhvcml0eTEPMA0GA1UEChMGRGVtb0NBMQswCQYDVQQGEwJJ
VDAeFw0wNDA1MTMxNzA1MzZaFw0zMTA5MjgxNzA1MzZaMEAxIDAeBgNVBAMTF0Nl
cnRpZmljYXRpb24gQXV0aG9yaXR5MQ8wDQYDVQQKEwZEZW1vQ0ExCzAJBgNVBAYT
AklUMIICIjANBgkqhkiG9w0BAQEFAAOCAg8AMIICCgKCAgEAru/MqeJCT912srCv
v9rLP9x7mOHaKXJbKEHOwHseQTpdzU6T5vrroV5zADLekNqwHz84LruoB6ZR6c7h
T1PqXahlLpOjEL4NFHFMumpLVL3p0k4PxCNCgoqN1+dr8KEHe7ZNfLwSZCDAR1+6
91jToVqs6KFskY6dxgllA6qzGyBkhnETp6pFMP/n6ucdnT4IJnrnGf+32ly+GIyV
8E4xUURgZnLOg5lcJhOuXyXBtHThPo4Dd7i5VzzYiAh6buEtDblSGM6Tkq4lx/hi
ABIJT/lbDeGjNZ3qJqA1bZ8NpS/JB9e6G4+u4SmW2H91seauNWuNtRwCOUuAOL3W
jqKwezYOAO3A2XNKc+7shVjZ2ah2gNXG6lKKEdQ0bep+6frYDiu/zBIkqAB8N45e
rwIyTPAF058w7TOtqjkczN04kTfdmxAcOKqKRIkEUq68kli1yCWgRkRgwqGkvlko
FOufkXweMQLLs0035BKP6p5TQzW8ldlFmXSyLLHqZBVej4DlM4Kz/Bw81Yo+RLe6
co/jMejnXid3AnNp44A9tUtRmX55vGbMY3FvofRGewc4OJaTO4VXGsShTY21OolC
lOyA5WjffKfJEJP26MWdSYcEzTXyA25ntSPIXf4xjw0md51KXpSXyrclPpBiIU/f
TrfMiOTPy7DyUS7LebkzYjVBIPcCAwEAAaOCAVYwggFSMA8GA1UdEwEB/wQFMAMB
Af8wHQYDVR0OBBYEFGku3CLd3xb+Y9v2NjfI8b9SniXrMGgGA1UdIwRhMF+AFGku
3CLd3xb+Y9v2NjfI8b9SniXroUSkQjBAMSAwHgYDVQQDExdDZXJ0aWZpY2F0aW9u
IEF1dGhvcml0eTEPMA0GA1UEChMGRGVtb0NBMQswCQYDVQQGEwJJVIIBADALBgNV
HQ8EBAMCAcYwJAYDVR0RBB0wG4EZZGVtb2NhLW1hbmFnZXJAb3BlbmNhLm9yZzA1
BggrBgEFBQcBAQQpMCcwJQYIKwYBBQUHMAGGGWh0dHA6Ly8xMzAuMTkyLjEuNTk6
MjU2MC8wEQYJYIZIAYb4QgEBBAQDAgAHMDkGCWCGSAGG+EIBDQQsFipEZW1vQ0Eg
Q2VydGlmaWNhdGlvbiBBdXRob3JpdHkgQ2VydGlmaWNhdGUwDQYJKoZIhvcNAQEE
BQADggIBABXAm/sKu+sUaTFhbFQU59PxZLBa6y2Slf1t/RMb94rSF1zn8w3G6Drh
j0TlhyQbYbTUGL8VLrNiim74oHpSBGyAtERq+em6/t6P6HIC7BVwtnPkgY/aM3O8
xr/jPfZtgZzvxgW0fL4Ka2IGIrIW3Us5vNV6S5Xrn72nufp77aPpw1tu4+Q8bub1
6ZQRJwMKAb5k81TcxpejbU/jxKmK2B+T1si7HPXbCRiO1Fyo5R9CCKsJLnkDwZsZ
seYK9UiqiSEN8gz3rmDLVo5g/4Jm0vPSKZv57jIrBxwm7yoopkRnPMhuA5LVh/4W
Fh4DlB3XAxAl+0DogXwLPn50TOdsGXLx/Tk0uwPUNq4FCDaa7tmkXEAJSxFjRhGe
qbXVIr5HK0q8ikYnwm6Dx6aFAAKcDLCizoy7waao79YoCdfHmW+EPSzDxfl2k3eU
/gE0vPUGx30mstWaJ4RJ6WEYkIiEuDLlPgYi6hsqVjnX4brlDDQmkHJmuhIwoZg7
6oFEhrZ6+OjN8YEaoC8GUmjKReENRs1KqyfCqate6ianRwTvPD/HGDxEYm2NCruO
j0wUSyjK+jORDFBiEoUWn1udAnBKYH/UuvPFmorNWKyVxN7VpRnPzF1aOBCYsOrr
nSrlXcWfPYiVq76MZD0PLQow7ivCu8iwyVl+Yl6CeyRgltOEvIZl
-----END CERTIFICATE-----
