Certificate:
    Data:
        Version: 3 (0x2)
        Serial Number: 11008328 (0xa7f948)
        Signature Algorithm: sha1WithRSAEncryption
        Issuer: CN=Certification Authority, O=DemoCA, C=IT
        Validity
            Not Before: Feb 23 20:07:51 2006 GMT
            Not After : Feb 23 20:07:51 2007 GMT
        Subject: C=IT, O=FOSDEM, CN=localhost
        Subject Public Key Info:
            Public Key Algorithm: rsaEncryption
            RSA Public Key: (1024 bit)
                Modulus (1024 bit):
                    00:b8:4f:8d:7c:d7:d2:ec:19:41:25:ac:fa:8f:30:
                    52:31:06:38:45:75:e3:86:82:6b:b5:c2:25:69:8e:
                    57:53:d5:8d:83:d1:9c:d4:bf:03:2f:51:31:a5:e4:
                    da:9d:b0:47:04:ea:ed:88:ea:ec:d5:17:c1:2e:5a:
                    ce:43:0d:27:a8:7b:09:f6:36:6a:57:63:2c:e2:7b:
                    56:0e:16:51:8f:48:d1:02:4c:ae:7f:c2:73:e3:78:
                    72:24:f5:fd:05:67:c4:9c:b5:f5:8e:f6:22:93:bc:
                    19:5c:e4:70:d9:85:21:8b:f6:ae:b3:40:f0:c4:c9:
                    a6:80:d6:66:59:18:54:6d:8b
                Exponent: 65537 (0x10001)
        X509v3 extensions:
            X509v3 Basic Constraints: 
                CA:FALSE
            Netscape Cert Type: 
                SSL Server
            X509v3 Key Usage: 
                Digital Signature, Non Repudiation, Key Encipherment, Data Encipherment
            X509v3 Extended Key Usage: 
                OCSP Signing
            Netscape Comment: 
                FOSDEM - OCSP Responder
            X509v3 Subject Key Identifier: 
                5A:AA:5F:FE:9C:DD:8D:51:EB:B6:B3:AC:B1:D4:03:5C:C6:51:55:A4
            X509v3 Authority Key Identifier: 
                keyid:69:2E:DC:22:DD:DF:16:FE:63:DB:F6:36:37:C8:F1:BF:52:9E:25:EB
                DirName:/CN=Certification Authority/O=DemoCA/C=IT
                serial:00

            X509v3 Subject Alternative Name: 
                URI:http://localhost:2560
            X509v3 Issuer Alternative Name: 
                email:democa-manager@openca.org
            X509v3 CRL Distribution Points: 
                URI:http://localhost/crl/crl.pem

    Signature Algorithm: sha1WithRSAEncryption
        9c:a7:96:03:2d:ee:25:23:a7:d5:bb:9b:f5:1d:72:06:ab:99:
        6b:19:f1:e1:d7:12:17:bd:ad:b5:46:1e:b2:a0:35:c8:8b:69:
        aa:39:b6:20:28:10:99:09:fb:df:db:84:82:a1:fb:41:f9:b3:
        cd:92:1b:04:07:39:99:56:62:0a:1a:cc:bb:64:d4:bd:02:2e:
        b2:61:82:69:39:2d:5a:c6:ba:36:4a:10:08:e2:a6:cc:9a:6b:
        5b:10:bd:f3:59:9c:22:6f:67:02:3c:f3:b6:6f:fa:e7:82:1e:
        06:44:4b:05:38:2c:37:ba:c8:34:84:f7:27:61:f3:c4:53:a2:
        b8:17:bf:a0:e0:60:d1:44:4c:ca:20:fc:e2:95:16:32:f2:1c:
        83:44:fd:89:9c:4f:e6:86:4c:9b:6c:73:bf:40:27:06:f7:d7:
        4c:ca:36:df:60:37:18:a9:00:da:66:36:9e:56:22:3d:f8:89:
        25:a9:97:8a:85:f8:14:d5:dc:16:ec:14:a2:31:19:fa:b4:47:
        97:38:5e:ce:f5:ff:be:07:4e:17:a3:f1:9f:ff:f8:83:98:08:
        4e:82:d1:02:a2:1c:ea:08:3f:e9:04:7e:0e:93:0a:9f:02:d2:
        83:4b:c1:e2:df:35:72:d9:94:67:df:89:1f:af:f5:97:87:be:
        80:72:a6:8b:62:1f:af:5a:11:2e:bd:9b:d5:6d:fd:e4:2d:43:
        98:90:92:72:6f:29:b2:98:d3:cd:6e:ae:ed:26:67:51:91:b7:
        74:26:f3:dd:90:5c:d1:df:dd:db:40:af:84:fb:4d:67:a5:b4:
        e9:67:71:ce:0f:aa:5f:a1:d4:d7:62:e5:93:04:dc:a3:1c:fb:
        16:8c:cf:13:24:cb:b5:0b:40:da:db:52:29:50:ae:c5:f8:d7:
        fc:c4:48:ab:ec:30:2b:4f:0e:5f:39:23:24:10:ad:ad:43:d7:
        a8:67:69:5c:72:c8:f0:db:ab:15:61:94:66:af:7c:b2:72:f9:
        7f:28:d5:28:2b:49:80:8c:b9:c7:e2:ec:22:08:c1:3f:76:66:
        f3:b2:85:37:f1:97:b2:bc:29:79:3f:44:b3:ce:5a:1c:d8:0c:
        29:c4:2a:03:4c:28:3e:4a:d4:61:4c:0c:a1:96:69:f8:4f:ee:
        97:bd:d2:f1:4d:96:28:6f:d4:2a:49:7f:d6:f4:6b:b8:8b:7e:
        a0:0f:e4:d1:4b:e8:b5:81:f0:da:d4:45:9d:67:8f:80:28:42:
        0c:6a:a1:16:6e:80:00:52:34:90:f7:4f:15:8c:42:4d:bf:f4:
        72:d1:40:30:1e:25:a2:e6:ab:47:df:c9:6b:54:c9:a6:31:80:
        cb:13:54:9c:38:8c:bc:ba
-----BEGIN CERTIFICATE-----
MIIE2jCCAsKgAwIBAgIEAKf5SDANBgkqhkiG9w0BAQUFADBAMSAwHgYDVQQDExdD
ZXJ0aWZpY2F0aW9uIEF1dGhvcml0eTEPMA0GA1UEChMGRGVtb0NBMQswCQYDVQQG
EwJJVDAeFw0wNjAyMjMyMDA3NTFaFw0wNzAyMjMyMDA3NTFaMDIxCzAJBgNVBAYT
AklUMQ8wDQYDVQQKEwZGT1NERU0xEjAQBgNVBAMTCWxvY2FsaG9zdDCBnzANBgkq
hkiG9w0BAQEFAAOBjQAwgYkCgYEAuE+NfNfS7BlBJaz6jzBSMQY4RXXjhoJrtcIl
aY5XU9WNg9Gc1L8DL1ExpeTanbBHBOrtiOrs1RfBLlrOQw0nqHsJ9jZqV2Ms4ntW
DhZRj0jRAkyuf8Jz43hyJPX9BWfEnLX1jvYik7wZXORw2YUhi/aus0DwxMmmgNZm
WRhUbYsCAwEAAaOCAWwwggFoMAkGA1UdEwQCMAAwEQYJYIZIAYb4QgEBBAQDAgZA
MAsGA1UdDwQEAwIE8DATBgNVHSUEDDAKBggrBgEFBQcDCTAmBglghkgBhvhCAQ0E
GRYXRk9TREVNIC0gT0NTUCBSZXNwb25kZXIwHQYDVR0OBBYEFFqqX/6c3Y1R67az
rLHUA1zGUVWkMGgGA1UdIwRhMF+AFGku3CLd3xb+Y9v2NjfI8b9SniXroUSkQjBA
MSAwHgYDVQQDExdDZXJ0aWZpY2F0aW9uIEF1dGhvcml0eTEPMA0GA1UEChMGRGVt
b0NBMQswCQYDVQQGEwJJVIIBADAgBgNVHREEGTAXhhVodHRwOi8vbG9jYWxob3N0
OjI1NjAwJAYDVR0SBB0wG4EZZGVtb2NhLW1hbmFnZXJAb3BlbmNhLm9yZzAtBgNV
HR8EJjAkMCKgIKAehhxodHRwOi8vbG9jYWxob3N0L2NybC9jcmwucGVtMA0GCSqG
SIb3DQEBBQUAA4ICAQCcp5YDLe4lI6fVu5v1HXIGq5lrGfHh1xIXva21Rh6yoDXI
i2mqObYgKBCZCfvf24SCoftB+bPNkhsEBzmZVmIKGsy7ZNS9Ai6yYYJpOS1axro2
ShAI4qbMmmtbEL3zWZwib2cCPPO2b/rngh4GREsFOCw3usg0hPcnYfPEU6K4F7+g
4GDRREzKIPzilRYy8hyDRP2JnE/mhkybbHO/QCcG99dMyjbfYDcYqQDaZjaeViI9
+IklqZeKhfgU1dwW7BSiMRn6tEeXOF7O9f++B04Xo/Gf//iDmAhOgtECohzqCD/p
BH4OkwqfAtKDS8Hi3zVy2ZRn34kfr/WXh76AcqaLYh+vWhEuvZvVbf3kLUOYkJJy
bymymNPNbq7tJmdRkbd0JvPdkFzR393bQK+E+01npbTpZ3HOD6pfodTXYuWTBNyj
HPsWjM8TJMu1C0Da21IpUK7F+Nf8xEir7DArTw5fOSMkEK2tQ9eoZ2lccsjw26sV
YZRmr3yycvl/KNUoK0mAjLnH4uwiCME/dmbzsoU38ZeyvCl5P0Szzloc2AwpxCoD
TCg+StRhTAyhlmn4T+6XvdLxTZYob9QqSX/W9Gu4i36gD+TRS+i1gfDa1EWdZ4+A
KEIMaqEWboAAUjSQ908VjEJNv/Ry0UAwHiWi5qtH38lrVMmmMYDLE1ScOIy8ug==
-----END CERTIFICATE-----
